target datalayout = "e-m:e-p270:32:32-p271:32:32-p272:64:64-i64:64-i128:128-f80:128-n8:16:32:64-S128"
target triple = "x86_64-pc-linux-gnu"

%struct.formnode = type { i16, i16, i16, i32, i32, i32, i32, i16, i16, i16, i32, ptr, ptr, ptr, ptr, ptr, ptr, ptr, ptr, ptr, ptr, ptr }
%struct.fieldnode = type { i16, i16, i16, i16, i16, i32, i32, i32, i32, i16, i16, i16, i16, i32, i32, i32, i32, ptr, ptr, ptr, ptr, ptr, ptr, ptr, ptr }

; Function Attrs: nounwind uwtable
define internal i32 @IFN_Down_Character(ptr noundef %0) #0 {
  %2 = alloca i32, align 4
  %3 = alloca ptr, align 8
  %4 = alloca ptr, align 8
  %5 = alloca i32, align 4
  store ptr %0, ptr %3, align 8, !tbaa !4
  call void @llvm.lifetime.start.p0(i64 8, ptr %4) #9
  %6 = load ptr, ptr %3, align 8, !tbaa !4
  %7 = getelementptr inbounds nuw %struct.formnode, ptr %6, i32 0, i32 15
  %8 = load ptr, ptr %7, align 8, !tbaa !16
  store ptr %8, ptr %4, align 8, !tbaa !17
  %9 = load ptr, ptr %3, align 8, !tbaa !4
  %10 = getelementptr inbounds nuw %struct.formnode, ptr %9, i32 0, i32 3
  %11 = load i32, ptr %10, align 8, !tbaa !21
  %12 = add nsw i32 %11, 1
  store i32 %12, ptr %10, align 8, !tbaa !21
  %13 = load ptr, ptr %4, align 8, !tbaa !17
  %14 = getelementptr inbounds nuw %struct.fieldnode, ptr %13, i32 0, i32 5
  %15 = load i32, ptr %14, align 4, !tbaa !27
  %16 = icmp eq i32 %12, %15
  br i1 %16, label %17, label %36

17:                                               ; preds = %1
  %18 = load ptr, ptr %4, align 8, !tbaa !17
  %19 = getelementptr inbounds nuw %struct.fieldnode, ptr %18, i32 0, i32 1
  %20 = load i16, ptr %19, align 2, !tbaa !28
  %21 = sext i16 %20 to i32
  %22 = load ptr, ptr %4, align 8, !tbaa !17
  %23 = getelementptr inbounds nuw %struct.fieldnode, ptr %22, i32 0, i32 8
  %24 = load i32, ptr %23, align 8, !tbaa !36
  %25 = add nsw i32 %21, %24
  %26 = icmp eq i32 %25, 1
  br i1 %26, label %31, label %27

27:                                               ; preds = %17
  %28 = load ptr, ptr %4, align 8, !tbaa !17
  %29 = call zeroext i1 @Field_Grown(ptr noundef %28, i32 noundef 1)
  br i1 %29, label %30, label %31

30:                                               ; preds = %27
  store i32 0, ptr %2, align 4
  store i32 1, ptr %5, align 4
  br label %37

31:                                               ; preds = %27, %17
  %32 = load ptr, ptr %3, align 8, !tbaa !4
  %33 = getelementptr inbounds nuw %struct.formnode, ptr %32, i32 0, i32 3
  %34 = load i32, ptr %33, align 8, !tbaa !21
  %35 = add nsw i32 %34, -1
  store i32 %35, ptr %33, align 8, !tbaa !21
  store i32 -12, ptr %2, align 4
  store i32 1, ptr %5, align 4
  br label %37

36:                                               ; preds = %1
  store i32 0, ptr %2, align 4
  store i32 1, ptr %5, align 4
  br label %37

37:                                               ; preds = %36, %31, %30
  call void @llvm.lifetime.end.p0(i64 8, ptr %4) #9
  %38 = load i32, ptr %2, align 4
  ret i32 %38
}